target datalayout = "e-m:e-p270:32:32-p271:32:32-p272:64:64-i64:64-i128:128-f80:128-n8:16:32:64-S128"
target triple = "x86_64-pc-linux-gnu"

%struct._packet_info = type { ptr, ptr, i32, i32, %struct.nstime_t, %struct.nstime_t, %struct.nstime_t, i8, ptr, ptr, ptr, ptr, %struct._address, %struct._address, %struct._address, %struct._address, %struct._address, %struct._address, i32, ptr, i8, [3 x i8], %struct.anon, i32, i32, i32, i32, ptr, i8, ptr, ptr, i16, i16, i32, i32, i16, i32, i32, ptr, ptr, ptr, i8, i8, i16, i16, i16, i32, i16, i16, ptr, ptr, ptr, ptr, ptr, i32, i32 }
%struct.nstime_t = type { i64, i32 }
%struct._address = type { i32, i32, ptr, ptr }
%struct.anon = type { i8, [3 x i8] }
%struct._proto_node = type { ptr, ptr, ptr, ptr, ptr, ptr, ptr }
%struct.field_info = type { ptr, i32, i32, i32, i32, i32, i32, ptr, ptr, ptr, i32, i32 }

@hf_dmx_chan_output_data_filter = internal global i32 0, align 4
@hf_dmx_chan_output_dmx_data = internal global i32 0, align 4
@ett_dmx_chan = internal global i32 0, align 4
@.str.20 = private unnamed_addr constant [13 x i8] c"DMX Channels\00", align 1
@proto_dmx_chan = internal global i32 0, align 4
@global_disp_chan_val_type = internal global i32 0, align 4
@global_disp_chan_nr_type = internal global i32 0, align 4
@global_disp_col_count = internal global i32 16, align 4
@dissect_dmx_chan.chan_format = internal global [3 x ptr] [ptr @.str.96, ptr @.str.97, ptr @.str.98], align 16
@dissect_dmx_chan.string_format = internal global [2 x ptr] [ptr @.str.99, ptr @.str.100], align 16
@.str.101 = private unnamed_addr constant [1 x i8] zeroinitializer, align 1
@.str.102 = private unnamed_addr constant [2 x i8] c" \00", align 1
@.str.103 = private unnamed_addr constant [4 x i8] c"FL \00", align 1

; Function Attrs: inlinehint nounwind null_pointer_is_valid sspstrong uwtable
define internal void @proto_item_set_hidden(ptr noundef %0) #3 {
  %2 = alloca ptr, align 8
  store ptr %0, ptr %2, align 8
  %3 = load ptr, ptr %2, align 8
  %4 = icmp ne ptr %3, null
  br i1 %4, label %5, label %24

5:                                                ; preds = %1
  br label %6

6:                                                ; preds = %5
  %7 = load ptr, ptr %2, align 8
  %8 = getelementptr inbounds nuw %struct._proto_node, ptr %7, i32 0, i32 5
  %9 = load ptr, ptr %8, align 8
  %10 = icmp ne ptr %9, null
  br i1 %10, label %11, label %22

11:                                               ; preds = %6
  %12 = load ptr, ptr %2, align 8
  %13 = getelementptr inbounds nuw %struct._proto_node, ptr %12, i32 0, i32 5
  %14 = load ptr, ptr %13, align 8
  %15 = getelementptr inbounds nuw %struct.field_info, ptr %14, i32 0, i32 6
  %16 = load i32, ptr %15, align 4
  %17 = or i32 %16, 1
  %18 = load ptr, ptr %2, align 8
  %19 = getelementptr inbounds nuw %struct._proto_node, ptr %18, i32 0, i32 5
  %20 = load ptr, ptr %19, align 8
  %21 = getelementptr inbounds nuw %struct.field_info, ptr %20, i32 0, i32 6
  store i32 %17, ptr %21, align 4
  br label %22

22:                                               ; preds = %11, %6
  br label %23

23:                                               ; preds = %22
  br label %24

24:                                               ; preds = %23, %1
  ret void
}

; Function Attrs: null_pointer_is_valid sspstrong uwtable
define internal i32 @dissect_dmx_chan(ptr noundef %0, ptr noundef %1, ptr noundef %2, ptr noundef %3) #0 {
  %5 = alloca ptr, align 8
  %6 = alloca ptr, align 8
  %7 = alloca ptr, align 8
  %8 = alloca ptr, align 8
  %9 = alloca ptr, align 8
  %10 = alloca ptr, align 8
  %11 = alloca i16, align 2
  %12 = alloca i16, align 2
  %13 = alloca i16, align 2
  %14 = alloca i16, align 2
  %15 = alloca i8, align 1
  %16 = alloca i32, align 4
  %17 = alloca ptr, align 8
  %18 = alloca ptr, align 8
  store ptr %0, ptr %5, align 8
  store ptr %1, ptr %6, align 8
  store ptr %2, ptr %7, align 8
  store ptr %3, ptr %8, align 8
  %19 = load ptr, ptr %6, align 8
  %20 = getelementptr inbounds nuw %struct._packet_info, ptr %19, i32 0, i32 1
  %21 = load ptr, ptr %20, align 8
  call void @col_set_str(ptr noundef %21, i32 noundef 35, ptr noundef @.str.20)
  %22 = load ptr, ptr %6, align 8
  %23 = getelementptr inbounds nuw %struct._packet_info, ptr %22, i32 0, i32 1
  %24 = load ptr, ptr %23, align 8
  call void @col_clear(ptr noundef %24, i32 noundef 25)
  %25 = load ptr, ptr %7, align 8
  %26 = icmp ne ptr %25, null
  br i1 %26, label %27, label %176

27:                                               ; preds = %4
  call void @llvm.lifetime.start.p0(i64 8, ptr %9) #4
  %28 = load ptr, ptr %6, align 8
  %29 = getelementptr inbounds nuw %struct._packet_info, ptr %28, i32 0, i32 51
  %30 = load ptr, ptr %29, align 8
  %31 = call noalias ptr @wmem_strbuf_new(ptr noundef %30, ptr noundef @.str.101)
  store ptr %31, ptr %9, align 8
  call void @llvm.lifetime.start.p0(i64 8, ptr %10) #4
  call void @llvm.lifetime.start.p0(i64 2, ptr %11) #4
  call void @llvm.lifetime.start.p0(i64 2, ptr %12) #4
  call void @llvm.lifetime.start.p0(i64 2, ptr %13) #4
  call void @llvm.lifetime.start.p0(i64 2, ptr %14) #4
  call void @llvm.lifetime.start.p0(i64 1, ptr %15) #4
  call void @llvm.lifetime.start.p0(i64 4, ptr %16) #4
  store i32 0, ptr %16, align 4
  call void @llvm.lifetime.start.p0(i64 8, ptr %17) #4
  %32 = load ptr, ptr %7, align 8
  %33 = load i32, ptr @proto_dmx_chan, align 4
  %34 = load ptr, ptr %5, align 8
  %35 = load i32, ptr %16, align 4
  %36 = call ptr @proto_tree_add_item(ptr noundef %32, i32 noundef %33, ptr noundef %34, i32 noundef %35, i32 noundef -1, i32 noundef 0)
  store ptr %36, ptr %17, align 8
  call void @llvm.lifetime.start.p0(i64 8, ptr %18) #4
  %37 = load ptr, ptr %17, align 8
  %38 = load i32, ptr @ett_dmx_chan, align 4
  %39 = call ptr @proto_item_add_subtree(ptr noundef %37, i32 noundef %38)
  store ptr %39, ptr %18, align 8
  %40 = load ptr, ptr %5, align 8
  %41 = load i32, ptr %16, align 4
  %42 = call i32 @tvb_reported_length_remaining(ptr noundef %40, i32 noundef %41)
  %43 = trunc i32 %42 to i16
  store i16 %43, ptr %11, align 2
  %44 = load i16, ptr %11, align 2
  %45 = zext i16 %44 to i32
  %46 = load i32, ptr @global_disp_col_count, align 4
  %47 = sdiv i32 %45, %46
  %48 = load i16, ptr %11, align 2
  %49 = zext i16 %48 to i32
  %50 = load i32, ptr @global_disp_col_count, align 4
  %51 = srem i32 %49, %50
  %52 = icmp eq i32 %51, 0
  %53 = select i1 %52, i32 0, i32 1
  %54 = add i32 %47, %53
  %55 = trunc i32 %54 to i16
  store i16 %55, ptr %14, align 2
  store i16 0, ptr %12, align 2
  br label %56

56:                                               ; preds = %164, %27
  %57 = load i16, ptr %12, align 2
  %58 = zext i16 %57 to i32
  %59 = load i16, ptr %14, align 2
  %60 = zext i16 %59 to i32
  %61 = icmp slt i32 %58, %60
  br i1 %61, label %62, label %167

62:                                               ; preds = %56
  %63 = load ptr, ptr %9, align 8
  call void @wmem_strbuf_truncate(ptr noundef %63, i64 noundef 0)
  store i16 0, ptr %13, align 2
  br label %64

64:                                               ; preds = %137, %62
  %65 = load i16, ptr %13, align 2
  %66 = zext i16 %65 to i32
  %67 = load i32, ptr @global_disp_col_count, align 4
  %68 = icmp slt i32 %66, %67
  br i1 %68, label %69, label %80

69:                                               ; preds = %64
  %70 = load i16, ptr %12, align 2
  %71 = zext i16 %70 to i32
  %72 = load i32, ptr @global_disp_col_count, align 4
  %73 = mul i32 %71, %72
  %74 = load i16, ptr %13, align 2
  %75 = zext i16 %74 to i32
  %76 = add i32 %73, %75
  %77 = load i16, ptr %11, align 2
  %78 = zext i16 %77 to i32
  %79 = icmp slt i32 %76, %78
  br label %80

80:                                               ; preds = %69, %64
  %81 = phi i1 [ false, %64 ], [ %79, %69 ]
  br i1 %81, label %82, label %140

82:                                               ; preds = %80
  %83 = load i32, ptr @global_disp_col_count, align 4
  %84 = icmp sge i32 %83, 2
  br i1 %84, label %85, label %94

85:                                               ; preds = %82
  %86 = load i16, ptr %13, align 2
  %87 = zext i16 %86 to i32
  %88 = load i32, ptr @global_disp_col_count, align 4
  %89 = sdiv i32 %88, 2
  %90 = srem i32 %87, %89
  %91 = icmp eq i32 %90, 0
  br i1 %91, label %92, label %94

92:                                               ; preds = %85
  %93 = load ptr, ptr %9, align 8
  call void @wmem_strbuf_append(ptr noundef %93, ptr noundef @.str.102)
  br label %94

94:                                               ; preds = %92, %85, %82
  %95 = load ptr, ptr %5, align 8
  %96 = load i32, ptr %16, align 4
  %97 = load i16, ptr %12, align 2
  %98 = zext i16 %97 to i32
  %99 = load i32, ptr @global_disp_col_count, align 4
  %100 = mul i32 %98, %99
  %101 = add i32 %96, %100
  %102 = load i16, ptr %13, align 2
  %103 = zext i16 %102 to i32
  %104 = add i32 %101, %103
  %105 = call zeroext i8 @tvb_get_uint8(ptr noundef %95, i32 noundef %104)
  store i8 %105, ptr %15, align 1
  %106 = load i32, ptr @global_disp_chan_val_type, align 4
  %107 = icmp eq i32 %106, 0
  br i1 %107, label %108, label %128

108:                                              ; preds = %94
  %109 = load i8, ptr %15, align 1
  %110 = zext i8 %109 to i32
  %111 = mul i32 %110, 100
  %112 = sdiv i32 %111, 255
  %113 = trunc i32 %112 to i8
  store i8 %113, ptr %15, align 1
  %114 = load i8, ptr %15, align 1
  %115 = zext i8 %114 to i32
  %116 = icmp eq i32 %115, 100
  br i1 %116, label %117, label %119

117:                                              ; preds = %108
  %118 = load ptr, ptr %9, align 8
  call void @wmem_strbuf_append(ptr noundef %118, ptr noundef @.str.103)
  br label %127

119:                                              ; preds = %108
  %120 = load ptr, ptr %9, align 8
  %121 = load i32, ptr @global_disp_chan_val_type, align 4
  %122 = sext i32 %121 to i64
  %123 = getelementptr [3 x ptr], ptr @dissect_dmx_chan.chan_format, i64 0, i64 %122
  %124 = load ptr, ptr %123, align 8
  %125 = load i8, ptr %15, align 1
  %126 = zext i8 %125 to i32
  call void (ptr, ptr, ...) @wmem_strbuf_append_printf(ptr noundef %120, ptr noundef %124, i32 noundef %126)
  br label %127

127:                                              ; preds = %119, %117
  br label %136

128:                                              ; preds = %94
  %129 = load ptr, ptr %9, align 8
  %130 = load i32, ptr @global_disp_chan_val_type, align 4
  %131 = sext i32 %130 to i64
  %132 = getelementptr [3 x ptr], ptr @dissect_dmx_chan.chan_format, i64 0, i64 %131
  %133 = load ptr, ptr %132, align 8
  %134 = load i8, ptr %15, align 1
  %135 = zext i8 %134 to i32
  call void (ptr, ptr, ...) @wmem_strbuf_append_printf(ptr noundef %129, ptr noundef %133, i32 noundef %135)
  br label %136

136:                                              ; preds = %128, %127
  br label %137

137:                                              ; preds = %136
  %138 = load i16, ptr %13, align 2
  %139 = add i16 %138, 1
  store i16 %139, ptr %13, align 2
  br label %64, !llvm.loop !6

140:                                              ; preds = %80
  %141 = load ptr, ptr %18, align 8
  %142 = load i32, ptr @hf_dmx_chan_output_dmx_data, align 4
  %143 = load ptr, ptr %5, align 8
  %144 = load i32, ptr %16, align 4
  %145 = load i16, ptr %12, align 2
  %146 = zext i16 %145 to i32
  %147 = load i32, ptr @global_disp_col_count, align 4
  %148 = mul i32 %146, %147
  %149 = add i32 %144, %148
  %150 = load i16, ptr %13, align 2
  %151 = zext i16 %150 to i32
  %152 = load i32, ptr @global_disp_chan_nr_type, align 4
  %153 = sext i32 %152 to i64
  %154 = getelementptr [2 x ptr], ptr @dissect_dmx_chan.string_format, i64 0, i64 %153
  %155 = load ptr, ptr %154, align 8
  %156 = load i16, ptr %12, align 2
  %157 = zext i16 %156 to i32
  %158 = load i32, ptr @global_disp_col_count, align 4
  %159 = mul i32 %157, %158
  %160 = add i32 %159, 1
  %161 = load ptr, ptr %9, align 8
  %162 = call ptr @wmem_strbuf_get_str(ptr noundef %161)
  %163 = call ptr (ptr, i32, ptr, i32, i32, ptr, ...) @proto_tree_add_none_format(ptr noundef %141, i32 noundef %142, ptr noundef %143, i32 noundef %149, i32 noundef %151, ptr noundef %155, i32 noundef %160, ptr noundef %162)
  br label %164

164:                                              ; preds = %140
  %165 = load i16, ptr %12, align 2
  %166 = add i16 %165, 1
  store i16 %166, ptr %12, align 2
  br label %56, !llvm.loop !8

167:                                              ; preds = %56
  %168 = load ptr, ptr %18, align 8
  %169 = load i32, ptr @hf_dmx_chan_output_data_filter, align 4
  %170 = load ptr, ptr %5, align 8
  %171 = load i32, ptr %16, align 4
  %172 = load i16, ptr %11, align 2
  %173 = zext i16 %172 to i32
  %174 = call ptr @proto_tree_add_item(ptr noundef %168, i32 noundef %169, ptr noundef %170, i32 noundef %171, i32 noundef %173, i32 noundef 0)
  store ptr %174, ptr %10, align 8
  %175 = load ptr, ptr %10, align 8
  call void @proto_item_set_hidden(ptr noundef %175)
  call void @llvm.lifetime.end.p0(i64 8, ptr %18) #4
  call void @llvm.lifetime.end.p0(i64 8, ptr %17) #4
  call void @llvm.lifetime.end.p0(i64 4, ptr %16) #4
  call void @llvm.lifetime.end.p0(i64 1, ptr %15) #4
  call void @llvm.lifetime.end.p0(i64 2, ptr %14) #4
  call void @llvm.lifetime.end.p0(i64 2, ptr %13) #4
  call void @llvm.lifetime.end.p0(i64 2, ptr %12) #4
  call void @llvm.lifetime.end.p0(i64 2, ptr %11) #4
  call void @llvm.lifetime.end.p0(i64 8, ptr %10) #4
  call void @llvm.lifetime.end.p0(i64 8, ptr %9) #4
  br label %176

176:                                              ; preds = %167, %4
  %177 = load ptr, ptr %5, align 8
  %178 = call i32 @tvb_captured_length(ptr noundef %177)
  ret i32 %178
}