; Function Attrs: null_pointer_is_valid sspstrong uwtable
define internal i32 @dissect_dmx_chan(ptr noundef %0, ptr noundef readonly captures(none) %1, ptr noundef %2, ptr readnone captures(none) %3) #0 {
  %5 = getelementptr inbounds nuw i8, ptr %1, i64 8
  %6 = load ptr, ptr %5, align 8
  tail call void @col_set_str(ptr noundef %6, i32 noundef 35, ptr noundef nonnull @.str.20)
  %7 = load ptr, ptr %5, align 8
  tail call void @col_clear(ptr noundef %7, i32 noundef 25)
  %.not = icmp eq ptr %2, null
  br i1 %.not, label %proto_item_set_hidden.exit, label %8

8:                                                ; preds = %4
  %9 = getelementptr inbounds nuw i8, ptr %1, i64 408
  %10 = load ptr, ptr %9, align 8
  %11 = tail call noalias ptr @wmem_strbuf_new(ptr noundef %10, ptr noundef nonnull @.str.101)
  %12 = load i32, ptr @proto_dmx_chan, align 4
  %13 = tail call ptr @proto_tree_add_item(ptr noundef nonnull %2, i32 noundef %12, ptr noundef %0, i32 noundef 0, i32 noundef -1, i32 noundef 0)
  %14 = load i32, ptr @ett_dmx_chan, align 4
  %15 = tail call ptr @proto_item_add_subtree(ptr noundef %13, i32 noundef %14)
  %16 = tail call i32 @tvb_reported_length_remaining(ptr noundef %0, i32 noundef 0)
  %17 = and i32 %16, 65535
  %18 = load i32, ptr @global_disp_col_count, align 4
  %19 = sdiv i32 %17, %18
  %20 = srem i32 %17, %18
  %21 = icmp ne i32 %20, 0
  %22 = zext i1 %21 to i32
  %23 = add nsw i32 %19, %22
  %24 = and i32 %23, 65535
  %.not61 = icmp eq i32 %24, 0
  br i1 %.not61, label %._crit_edge, label %.lr.ph60

.lr.ph60:                                         ; preds = %8, %.critedge
  %indvars.iv = phi i32 [ %indvars.iv.next, %.critedge ], [ 0, %8 ]
  tail call void @wmem_strbuf_truncate(ptr noundef %11, i64 noundef 0)
  %25 = load i32, ptr @global_disp_col_count, align 4
  %26 = icmp sgt i32 %25, 0
  br i1 %26, label %.lr.ph, label %.critedge

.lr.ph:                                           ; preds = %.lr.ph60, %56
  %27 = phi i32 [ %59, %56 ], [ %25, %.lr.ph60 ]
  %28 = phi i32 [ %58, %56 ], [ 0, %.lr.ph60 ]
  %.04654 = phi i16 [ %57, %56 ], [ 0, %.lr.ph60 ]
  %29 = mul i32 %27, %indvars.iv
  %30 = add i32 %29, %28
  %31 = icmp slt i32 %30, %17
  br i1 %31, label %32, label %.critedge

32:                                               ; preds = %.lr.ph
  %33 = icmp samesign ugt i32 %27, 1
  br i1 %33, label %34, label %39

34:                                               ; preds = %32
  %35 = lshr i32 %27, 1
  %36 = urem i32 %28, %35
  %37 = icmp eq i32 %36, 0
  br i1 %37, label %38, label %39

38:                                               ; preds = %34
  tail call void @wmem_strbuf_append(ptr noundef %11, ptr noundef nonnull @.str.102)
  %.pre = load i32, ptr @global_disp_col_count, align 4
  %.pre63 = mul i32 %.pre, %indvars.iv
  %.pre64 = add i32 %.pre63, %28
  br label %39

39:                                               ; preds = %38, %34, %32
  %.pre-phi65 = phi i32 [ %.pre64, %38 ], [ %30, %34 ], [ %30, %32 ]
  %40 = tail call zeroext i8 @tvb_get_uint8(ptr noundef %0, i32 noundef %.pre-phi65)
  %41 = load i32, ptr @global_disp_chan_val_type, align 4
  %42 = icmp eq i32 %41, 0
  br i1 %42, label %43, label %51

43:                                               ; preds = %39
  %44 = zext i8 %40 to i16
  %45 = mul nuw nsw i16 %44, 100
  %.off = add nsw i16 %45, -25500
  %46 = icmp ult i16 %.off, 255
  br i1 %46, label %47, label %48

47:                                               ; preds = %43
  tail call void @wmem_strbuf_append(ptr noundef %11, ptr noundef nonnull @.str.103)
  br label %56

48:                                               ; preds = %43
  %49 = udiv i16 %45, 255
  %50 = zext nneg i16 %49 to i32
  tail call void (ptr, ptr, ...) @wmem_strbuf_append_printf(ptr noundef %11, ptr noundef nonnull @.str.96, i32 noundef %50)
  br label %56

51:                                               ; preds = %39
  %52 = sext i32 %41 to i64
  %53 = getelementptr [3 x ptr], ptr @dissect_dmx_chan.chan_format, i64 0, i64 %52
  %54 = load ptr, ptr %53, align 8
  %55 = zext i8 %40 to i32
  tail call void (ptr, ptr, ...) @wmem_strbuf_append_printf(ptr noundef %11, ptr noundef %54, i32 noundef %55)
  br label %56

56:                                               ; preds = %51, %48, %47
  %57 = add i16 %.04654, 1
  %58 = zext i16 %57 to i32
  %59 = load i32, ptr @global_disp_col_count, align 4
  %60 = icmp sgt i32 %59, %58
  br i1 %60, label %.lr.ph, label %.critedge, !llvm.loop !6

.critedge:                                        ; preds = %.lr.ph, %56, %.lr.ph60
  %.lcssa53 = phi i32 [ 0, %.lr.ph60 ], [ %58, %56 ], [ %28, %.lr.ph ]
  %.lcssa = phi i32 [ %25, %.lr.ph60 ], [ %59, %56 ], [ %27, %.lr.ph ]
  %61 = load i32, ptr @hf_dmx_chan_output_dmx_data, align 4
  %62 = mul i32 %.lcssa, %indvars.iv
  %63 = load i32, ptr @global_disp_chan_nr_type, align 4
  %64 = sext i32 %63 to i64
  %65 = getelementptr [2 x ptr], ptr @dissect_dmx_chan.string_format, i64 0, i64 %64
  %66 = load ptr, ptr %65, align 8
  %67 = add i32 %62, 1
  %68 = tail call ptr @wmem_strbuf_get_str(ptr noundef %11)
  %69 = tail call ptr (ptr, i32, ptr, i32, i32, ptr, ...) @proto_tree_add_none_format(ptr noundef %15, i32 noundef %61, ptr noundef %0, i32 noundef %62, i32 noundef %.lcssa53, ptr noundef %66, i32 noundef %67, ptr noundef %68)
  %indvars.iv.next = add nuw nsw i32 %indvars.iv, 1
  %exitcond.not = icmp eq i32 %indvars.iv.next, %24
  br i1 %exitcond.not, label %._crit_edge, label %.lr.ph60, !llvm.loop !8

._crit_edge:                                      ; preds = %.critedge, %8
  %70 = load i32, ptr @hf_dmx_chan_output_data_filter, align 4
  %71 = tail call ptr @proto_tree_add_item(ptr noundef %15, i32 noundef %70, ptr noundef %0, i32 noundef 0, i32 noundef %17, i32 noundef 0)
  %.not.i = icmp eq ptr %71, null
  br i1 %.not.i, label %proto_item_set_hidden.exit, label %72

72:                                               ; preds = %._crit_edge
  %73 = getelementptr inbounds nuw i8, ptr %71, i64 40
  %74 = load ptr, ptr %73, align 8
  %.not5.i = icmp eq ptr %74, null
  br i1 %.not5.i, label %proto_item_set_hidden.exit, label %75

75:                                               ; preds = %72
  %76 = getelementptr inbounds nuw i8, ptr %74, i64 28
  %77 = load i32, ptr %76, align 4
  %78 = or i32 %77, 1
  store i32 %78, ptr %76, align 4
  br label %proto_item_set_hidden.exit

proto_item_set_hidden.exit:                       ; preds = %75, %72, %._crit_edge, %4
  %79 = tail call i32 @tvb_captured_length(ptr noundef %0)
  ret i32 %79
}